target datalayout = "e-m:e-p270:32:32-p271:32:32-p272:64:64-i64:64-i128:128-f80:128-n8:16:32:64-S128"
target triple = "x86_64-pc-linux-gnu"

%struct.signature_check = type { ptr, i64, i32, i64, ptr, ptr, i8, ptr, ptr, ptr, ptr, i32 }

; Function Attrs: nounwind uwtable
define dso_local void @signature_check_clear(ptr noundef %0) #0 {
  %2 = alloca ptr, align 8
  store ptr %0, ptr %2, align 8, !tbaa !4
  br label %3

3:                                                ; preds = %1
  %4 = load ptr, ptr %2, align 8, !tbaa !4
  %5 = getelementptr inbounds nuw %struct.signature_check, ptr %4, i32 0, i32 0
  %6 = load ptr, ptr %5, align 8, !tbaa !9
  call void @free(ptr noundef %6) #8
  %7 = load ptr, ptr %2, align 8, !tbaa !4
  %8 = getelementptr inbounds nuw %struct.signature_check, ptr %7, i32 0, i32 0
  store ptr null, ptr %8, align 8, !tbaa !9
  br label %9

9:                                                ; preds = %3
  br label %10

10:                                               ; preds = %9
  %11 = load ptr, ptr %2, align 8, !tbaa !4
  %12 = getelementptr inbounds nuw %struct.signature_check, ptr %11, i32 0, i32 4
  %13 = load ptr, ptr %12, align 8, !tbaa !14
  call void @free(ptr noundef %13) #8
  %14 = load ptr, ptr %2, align 8, !tbaa !4
  %15 = getelementptr inbounds nuw %struct.signature_check, ptr %14, i32 0, i32 4
  store ptr null, ptr %15, align 8, !tbaa !14
  br label %16

16:                                               ; preds = %10
  br label %17

17:                                               ; preds = %16
  %18 = load ptr, ptr %2, align 8, !tbaa !4
  %19 = getelementptr inbounds nuw %struct.signature_check, ptr %18, i32 0, i32 5
  %20 = load ptr, ptr %19, align 8, !tbaa !15
  call void @free(ptr noundef %20) #8
  %21 = load ptr, ptr %2, align 8, !tbaa !4
  %22 = getelementptr inbounds nuw %struct.signature_check, ptr %21, i32 0, i32 5
  store ptr null, ptr %22, align 8, !tbaa !15
  br label %23

23:                                               ; preds = %17
  br label %24

24:                                               ; preds = %23
  %25 = load ptr, ptr %2, align 8, !tbaa !4
  %26 = getelementptr inbounds nuw %struct.signature_check, ptr %25, i32 0, i32 7
  %27 = load ptr, ptr %26, align 8, !tbaa !16
  call void @free(ptr noundef %27) #8
  %28 = load ptr, ptr %2, align 8, !tbaa !4
  %29 = getelementptr inbounds nuw %struct.signature_check, ptr %28, i32 0, i32 7
  store ptr null, ptr %29, align 8, !tbaa !16
  br label %30

30:                                               ; preds = %24
  br label %31

31:                                               ; preds = %30
  %32 = load ptr, ptr %2, align 8, !tbaa !4
  %33 = getelementptr inbounds nuw %struct.signature_check, ptr %32, i32 0, i32 8
  %34 = load ptr, ptr %33, align 8, !tbaa !17
  call void @free(ptr noundef %34) #8
  %35 = load ptr, ptr %2, align 8, !tbaa !4
  %36 = getelementptr inbounds nuw %struct.signature_check, ptr %35, i32 0, i32 8
  store ptr null, ptr %36, align 8, !tbaa !17
  br label %37

37:                                               ; preds = %31
  br label %38

38:                                               ; preds = %37
  %39 = load ptr, ptr %2, align 8, !tbaa !4
  %40 = getelementptr inbounds nuw %struct.signature_check, ptr %39, i32 0, i32 9
  %41 = load ptr, ptr %40, align 8, !tbaa !18
  call void @free(ptr noundef %41) #8
  %42 = load ptr, ptr %2, align 8, !tbaa !4
  %43 = getelementptr inbounds nuw %struct.signature_check, ptr %42, i32 0, i32 9
  store ptr null, ptr %43, align 8, !tbaa !18
  br label %44

44:                                               ; preds = %38
  br label %45

45:                                               ; preds = %44
  %46 = load ptr, ptr %2, align 8, !tbaa !4
  %47 = getelementptr inbounds nuw %struct.signature_check, ptr %46, i32 0, i32 10
  %48 = load ptr, ptr %47, align 8, !tbaa !19
  call void @free(ptr noundef %48) #8
  %49 = load ptr, ptr %2, align 8, !tbaa !4
  %50 = getelementptr inbounds nuw %struct.signature_check, ptr %49, i32 0, i32 10
  store ptr null, ptr %50, align 8, !tbaa !19
  br label %51

51:                                               ; preds = %45
  ret void
}