; Function Attrs: mustprogress nounwind willreturn uwtable
define dso_local void @signature_check_clear(ptr noundef captures(none) %0) local_unnamed_addr #0 {
  %2 = load ptr, ptr %0, align 8, !tbaa !4
  tail call void @free(ptr noundef %2) #15
  store ptr null, ptr %0, align 8, !tbaa !4
  %3 = getelementptr inbounds nuw i8, ptr %0, i64 32
  %4 = load ptr, ptr %3, align 8, !tbaa !12
  tail call void @free(ptr noundef %4) #15
  store ptr null, ptr %3, align 8, !tbaa !12
  %5 = getelementptr inbounds nuw i8, ptr %0, i64 40
  %6 = load ptr, ptr %5, align 8, !tbaa !13
  tail call void @free(ptr noundef %6) #15
  store ptr null, ptr %5, align 8, !tbaa !13
  %7 = getelementptr inbounds nuw i8, ptr %0, i64 56
  %8 = load ptr, ptr %7, align 8, !tbaa !14
  tail call void @free(ptr noundef %8) #15
  store ptr null, ptr %7, align 8, !tbaa !14
  %9 = getelementptr inbounds nuw i8, ptr %0, i64 64
  %10 = load ptr, ptr %9, align 8, !tbaa !15
  tail call void @free(ptr noundef %10) #15
  store ptr null, ptr %9, align 8, !tbaa !15
  %11 = getelementptr inbounds nuw i8, ptr %0, i64 72
  %12 = load ptr, ptr %11, align 8, !tbaa !16
  tail call void @free(ptr noundef %12) #15
  store ptr null, ptr %11, align 8, !tbaa !16
  %13 = getelementptr inbounds nuw i8, ptr %0, i64 80
  %14 = load ptr, ptr %13, align 8, !tbaa !17
  tail call void @free(ptr noundef %14) #15
  store ptr null, ptr %13, align 8, !tbaa !17
  ret void
}